target datalayout = "e-m:e-p270:32:32-p271:32:32-p272:64:64-i64:64-i128:128-f80:128-n8:16:32:64-S128"
target triple = "x86_64-pc-linux-gnu"

%struct.H5O_obj_class_t = type { i32, ptr, ptr, ptr, ptr, ptr, ptr, ptr, ptr, ptr }
%struct.H5O_loc_t = type { ptr, i64, i8 }
%struct.H5G_loc_t = type { ptr, ptr }
%struct.H5G_name_t = type { ptr, ptr, i32 }

@.str.4 = private unnamed_addr constant [100 x i8] c"generated/home/dtcxzyw/WorkSpace/Projects/compilers/llvm-opt-benchmark/bench/hdf5/hdf5/src/H5Oint.c\00", align 1
@H5E_OHDR_g = external global i64, align 8
@H5E_CANTGET_g = external global i64, align 8
@H5E_CANTOPENOBJ_g = external global i64, align 8
@H5E_NOTFOUND_g = external global i64, align 8
@.str.24 = private unnamed_addr constant [22 x i8] c"unable to open object\00", align 1
@H5E_CANTRELEASE_g = external global i64, align 8
@.str.25 = private unnamed_addr constant [20 x i8] c"can't free location\00", align 1
@__func__.H5O__open_by_idx = private unnamed_addr constant [17 x i8] c"H5O__open_by_idx\00", align 1
@.str.26 = private unnamed_addr constant [16 x i8] c"group not found\00", align 1
@__func__.H5O_open_by_loc = private unnamed_addr constant [16 x i8] c"H5O_open_by_loc\00", align 1
@.str.27 = private unnamed_addr constant [33 x i8] c"unable to determine object class\00", align 1

; Function Attrs: nounwind uwtable
define ptr @H5O_open_by_loc(ptr noundef %0, ptr noundef %1) #0 {
  %3 = alloca ptr, align 8
  %4 = alloca ptr, align 8
  %5 = alloca ptr, align 8
  %6 = alloca ptr, align 8
  %7 = alloca i8, align 1
  store ptr %0, ptr %3, align 8
  store ptr %1, ptr %4, align 8
  store ptr null, ptr %6, align 8
  store i8 0, ptr %7, align 1
  %8 = load ptr, ptr %3, align 8
  %9 = getelementptr inbounds %struct.H5G_loc_t, ptr %8, i32 0, i32 0
  %10 = load ptr, ptr %9, align 8
  %11 = call ptr @H5O__obj_class(ptr noundef %10)
  store ptr %11, ptr %5, align 8
  %12 = icmp eq ptr null, %11
  br i1 %12, label %13, label %28

13:                                               ; preds = %2
  br label %14

14:                                               ; preds = %13
  br label %15

15:                                               ; preds = %14
  br label %16

16:                                               ; preds = %15
  %17 = load i64, ptr @H5E_OHDR_g, align 8
  %18 = load i64, ptr @H5E_CANTGET_g, align 8
  %19 = call i32 (ptr, ptr, i32, i64, i64, ptr, ...) @H5E_printf_stack(ptr noundef @.str.4, ptr noundef @__func__.H5O_open_by_loc, i32 noundef 718, i64 noundef %17, i64 noundef %18, ptr noundef @.str.27)
  br label %20

20:                                               ; preds = %16
  store i8 1, ptr %7, align 1
  %21 = load i8, ptr %7, align 1
  %22 = trunc i8 %21 to i1
  %23 = zext i1 %22 to i8
  store i8 %23, ptr %7, align 1
  br label %24

24:                                               ; preds = %20
  br label %25

25:                                               ; preds = %24
  store ptr null, ptr %6, align 8
  br label %52

26:                                               ; No predecessors!
  br label %27

27:                                               ; preds = %26
  br label %28

28:                                               ; preds = %27, %2
  %29 = load ptr, ptr %5, align 8
  %30 = getelementptr inbounds %struct.H5O_obj_class_t, ptr %29, i32 0, i32 5
  %31 = load ptr, ptr %30, align 8
  %32 = load ptr, ptr %3, align 8
  %33 = load ptr, ptr %4, align 8
  %34 = call ptr %31(ptr noundef %32, ptr noundef %33)
  store ptr %34, ptr %6, align 8
  %35 = icmp eq ptr null, %34
  br i1 %35, label %36, label %51

36:                                               ; preds = %28
  br label %37

37:                                               ; preds = %36
  br label %38

38:                                               ; preds = %37
  br label %39

39:                                               ; preds = %38
  %40 = load i64, ptr @H5E_OHDR_g, align 8
  %41 = load i64, ptr @H5E_CANTOPENOBJ_g, align 8
  %42 = call i32 (ptr, ptr, i32, i64, i64, ptr, ...) @H5E_printf_stack(ptr noundef @.str.4, ptr noundef @__func__.H5O_open_by_loc, i32 noundef 723, i64 noundef %40, i64 noundef %41, ptr noundef @.str.24)
  br label %43

43:                                               ; preds = %39
  store i8 1, ptr %7, align 1
  %44 = load i8, ptr %7, align 1
  %45 = trunc i8 %44 to i1
  %46 = zext i1 %45 to i8
  store i8 %46, ptr %7, align 1
  br label %47

47:                                               ; preds = %43
  br label %48

48:                                               ; preds = %47
  store ptr null, ptr %6, align 8
  br label %52

49:                                               ; No predecessors!
  br label %50

50:                                               ; preds = %49
  br label %51

51:                                               ; preds = %50, %28
  br label %52

52:                                               ; preds = %51, %48, %25
  %53 = load ptr, ptr %6, align 8
  ret ptr %53
}

; Function Attrs: nounwind uwtable
define ptr @H5O__open_by_idx(ptr noundef %0, ptr noundef %1, i32 noundef %2, i32 noundef %3, i64 noundef %4, ptr noundef %5) #0 {
  %7 = alloca ptr, align 8
  %8 = alloca ptr, align 8
  %9 = alloca i32, align 4
  %10 = alloca i32, align 4
  %11 = alloca i64, align 8
  %12 = alloca ptr, align 8
  %13 = alloca %struct.H5G_loc_t, align 8
  %14 = alloca %struct.H5G_name_t, align 8
  %15 = alloca %struct.H5O_loc_t, align 8
  %16 = alloca i8, align 1
  %17 = alloca ptr, align 8
  %18 = alloca i8, align 1
  store ptr %0, ptr %7, align 8
  store ptr %1, ptr %8, align 8
  store i32 %2, ptr %9, align 4
  store i32 %3, ptr %10, align 4
  store i64 %4, ptr %11, align 8
  store ptr %5, ptr %12, align 8
  store i8 0, ptr %16, align 1
  store ptr null, ptr %17, align 8
  store i8 0, ptr %18, align 1
  %19 = getelementptr inbounds %struct.H5G_loc_t, ptr %13, i32 0, i32 0
  store ptr %15, ptr %19, align 8
  %20 = getelementptr inbounds %struct.H5G_loc_t, ptr %13, i32 0, i32 1
  store ptr %14, ptr %20, align 8
  %21 = call i32 @H5G_loc_reset(ptr noundef %13)
  %22 = load ptr, ptr %7, align 8
  %23 = load ptr, ptr %8, align 8
  %24 = load i32, ptr %9, align 4
  %25 = load i32, ptr %10, align 4
  %26 = load i64, ptr %11, align 8
  %27 = call i32 @H5G_loc_find_by_idx(ptr noundef %22, ptr noundef %23, i32 noundef %24, i32 noundef %25, i64 noundef %26, ptr noundef %13)
  %28 = icmp slt i32 %27, 0
  br i1 %28, label %29, label %44

29:                                               ; preds = %6
  br label %30

30:                                               ; preds = %29
  br label %31

31:                                               ; preds = %30
  br label %32

32:                                               ; preds = %31
  %33 = load i64, ptr @H5E_OHDR_g, align 8
  %34 = load i64, ptr @H5E_NOTFOUND_g, align 8
  %35 = call i32 (ptr, ptr, i32, i64, i64, ptr, ...) @H5E_printf_stack(ptr noundef @.str.4, ptr noundef @__func__.H5O__open_by_idx, i32 noundef 641, i64 noundef %33, i64 noundef %34, ptr noundef @.str.26)
  br label %36

36:                                               ; preds = %32
  store i8 1, ptr %18, align 1
  %37 = load i8, ptr %18, align 1
  %38 = trunc i8 %37 to i1
  %39 = zext i1 %38 to i8
  store i8 %39, ptr %18, align 1
  br label %40

40:                                               ; preds = %36
  br label %41

41:                                               ; preds = %40
  store ptr null, ptr %17, align 8
  br label %64

42:                                               ; No predecessors!
  br label %43

43:                                               ; preds = %42
  br label %44

44:                                               ; preds = %43, %6
  store i8 1, ptr %16, align 1
  %45 = load ptr, ptr %12, align 8
  %46 = call ptr @H5O_open_by_loc(ptr noundef %13, ptr noundef %45)
  store ptr %46, ptr %17, align 8
  %47 = icmp eq ptr null, %46
  br i1 %47, label %48, label %63

48:                                               ; preds = %44
  br label %49

49:                                               ; preds = %48
  br label %50

50:                                               ; preds = %49
  br label %51

51:                                               ; preds = %50
  %52 = load i64, ptr @H5E_OHDR_g, align 8
  %53 = load i64, ptr @H5E_CANTOPENOBJ_g, align 8
  %54 = call i32 (ptr, ptr, i32, i64, i64, ptr, ...) @H5E_printf_stack(ptr noundef @.str.4, ptr noundef @__func__.H5O__open_by_idx, i32 noundef 646, i64 noundef %52, i64 noundef %53, ptr noundef @.str.24)
  br label %55

55:                                               ; preds = %51
  store i8 1, ptr %18, align 1
  %56 = load i8, ptr %18, align 1
  %57 = trunc i8 %56 to i1
  %58 = zext i1 %57 to i8
  store i8 %58, ptr %18, align 1
  br label %59

59:                                               ; preds = %55
  br label %60

60:                                               ; preds = %59
  store ptr null, ptr %17, align 8
  br label %64

61:                                               ; No predecessors!
  br label %62

62:                                               ; preds = %61
  br label %63

63:                                               ; preds = %62, %44
  br label %64

64:                                               ; preds = %63, %60, %41
  %65 = load ptr, ptr %17, align 8
  %66 = icmp eq ptr null, %65
  br i1 %66, label %67, label %87

67:                                               ; preds = %64
  %68 = load i8, ptr %16, align 1
  %69 = trunc i8 %68 to i1
  br i1 %69, label %70, label %86

70:                                               ; preds = %67
  %71 = call i32 @H5G_loc_free(ptr noundef %13)
  %72 = icmp slt i32 %71, 0
  br i1 %72, label %73, label %86

73:                                               ; preds = %70
  br label %74

74:                                               ; preds = %73
  br label %75

75:                                               ; preds = %74
  br label %76

76:                                               ; preds = %75
  %77 = load i64, ptr @H5E_OHDR_g, align 8
  %78 = load i64, ptr @H5E_CANTRELEASE_g, align 8
  %79 = call i32 (ptr, ptr, i32, i64, i64, ptr, ...) @H5E_printf_stack(ptr noundef @.str.4, ptr noundef @__func__.H5O__open_by_idx, i32 noundef 652, i64 noundef %77, i64 noundef %78, ptr noundef @.str.25)
  br label %80

80:                                               ; preds = %76
  store i8 1, ptr %18, align 1
  %81 = load i8, ptr %18, align 1
  %82 = trunc i8 %81 to i1
  %83 = zext i1 %82 to i8
  store i8 %83, ptr %18, align 1
  br label %84

84:                                               ; preds = %80
  store ptr null, ptr %17, align 8
  br label %85

85:                                               ; preds = %84
  br label %86

86:                                               ; preds = %85, %70, %67
  br label %87

87:                                               ; preds = %86, %64
  %88 = load ptr, ptr %17, align 8
  ret ptr %88
}