; Function Attrs: nounwind uwtable
define ptr @H5O__open_by_idx(ptr noundef %0, ptr noundef %1, i32 noundef %2, i32 noundef %3, i64 noundef %4, ptr noundef %5) local_unnamed_addr #1 {
  %7 = alloca %struct.H5G_loc_t, align 8
  %8 = alloca %struct.H5G_name_t, align 8
  %9 = alloca %struct.H5O_loc_t, align 8
  store ptr %9, ptr %7, align 8
  %10 = getelementptr inbounds i8, ptr %7, i64 8
  store ptr %8, ptr %10, align 8
  %11 = call i32 @H5G_loc_reset(ptr noundef nonnull %7) #11
  %12 = call i32 @H5G_loc_find_by_idx(ptr noundef %0, ptr noundef %1, i32 noundef %2, i32 noundef %3, i64 noundef %4, ptr noundef nonnull %7) #11
  %13 = icmp slt i32 %12, 0
  br i1 %13, label %14, label %18

14:                                               ; preds = %6
  %15 = load i64, ptr @H5E_OHDR_g, align 8
  %16 = load i64, ptr @H5E_NOTFOUND_g, align 8
  %17 = call i32 (ptr, ptr, i32, i64, i64, ptr, ...) @H5E_printf_stack(ptr noundef nonnull @.str.4, ptr noundef nonnull @__func__.H5O__open_by_idx, i32 noundef 641, i64 noundef %15, i64 noundef %16, ptr noundef nonnull @.str.26) #11
  br label %H5O_open_by_loc.exit.thread16

18:                                               ; preds = %6
  %19 = load ptr, ptr %7, align 8
  %20 = call ptr @H5O__obj_class(ptr noundef %19)
  %21 = icmp eq ptr %20, null
  br i1 %21, label %22, label %26

22:                                               ; preds = %18
  %23 = load i64, ptr @H5E_OHDR_g, align 8
  %24 = load i64, ptr @H5E_CANTGET_g, align 8
  %25 = call i32 (ptr, ptr, i32, i64, i64, ptr, ...) @H5E_printf_stack(ptr noundef nonnull @.str.4, ptr noundef nonnull @__func__.H5O_open_by_loc, i32 noundef 718, i64 noundef %23, i64 noundef %24, ptr noundef nonnull @.str.27) #11
  br label %H5O_open_by_loc.exit

26:                                               ; preds = %18
  %27 = getelementptr inbounds i8, ptr %20, i64 40
  %28 = load ptr, ptr %27, align 8
  %29 = call ptr %28(ptr noundef nonnull %7, ptr noundef %5) #11
  %30 = icmp eq ptr %29, null
  br i1 %30, label %31, label %H5O_open_by_loc.exit.thread16

31:                                               ; preds = %26
  %32 = load i64, ptr @H5E_OHDR_g, align 8
  %33 = load i64, ptr @H5E_CANTOPENOBJ_g, align 8
  %34 = call i32 (ptr, ptr, i32, i64, i64, ptr, ...) @H5E_printf_stack(ptr noundef nonnull @.str.4, ptr noundef nonnull @__func__.H5O_open_by_loc, i32 noundef 723, i64 noundef %32, i64 noundef %33, ptr noundef nonnull @.str.24) #11
  br label %H5O_open_by_loc.exit

H5O_open_by_loc.exit:                             ; preds = %31, %22
  %35 = load i64, ptr @H5E_OHDR_g, align 8
  %36 = load i64, ptr @H5E_CANTOPENOBJ_g, align 8
  %37 = call i32 (ptr, ptr, i32, i64, i64, ptr, ...) @H5E_printf_stack(ptr noundef nonnull @.str.4, ptr noundef nonnull @__func__.H5O__open_by_idx, i32 noundef 646, i64 noundef %35, i64 noundef %36, ptr noundef nonnull @.str.24) #11
  %38 = call i32 @H5G_loc_free(ptr noundef nonnull %7) #11
  %39 = icmp slt i32 %38, 0
  br i1 %39, label %40, label %H5O_open_by_loc.exit.thread16

40:                                               ; preds = %H5O_open_by_loc.exit
  %41 = load i64, ptr @H5E_OHDR_g, align 8
  %42 = load i64, ptr @H5E_CANTRELEASE_g, align 8
  %43 = call i32 (ptr, ptr, i32, i64, i64, ptr, ...) @H5E_printf_stack(ptr noundef nonnull @.str.4, ptr noundef nonnull @__func__.H5O__open_by_idx, i32 noundef 652, i64 noundef %41, i64 noundef %42, ptr noundef nonnull @.str.25) #11
  br label %H5O_open_by_loc.exit.thread16

H5O_open_by_loc.exit.thread16:                    ; preds = %14, %26, %H5O_open_by_loc.exit, %40
  %.1 = phi ptr [ null, %40 ], [ null, %H5O_open_by_loc.exit ], [ %29, %26 ], [ null, %14 ]
  ret ptr %.1
}